(lp0
S'montauk'
p1
aS'amagansett'
p2
aS'east hampton'
p3
aS'bridgehampton'
p4
aS'greenport'
p5
aS'southampton'
p6
aS'southold'
p7
aS'hampton bays'
p8
aS'mattituck'
p9
aS'westhampton'
p10
aS'riverhead'
p11
aS'speonk'
p12
aS'mastic shirley'
p13
aS'yaphank'
p14
aS'bellport'
p15
aS'medford'
p16
aS'patchogue'
p17
aS'port jefferson'
p18
aS'sayville'
p19
aS'ronkonkoma'
p20
aS'stony brook'
p21
aS'oakdale'
p22
aS'st. james'
p23
aS'great river'
p24
aS'central islip'
p25
aS'smithtown'
p26
aS'islip'
p27
aS'brentwood'
p28
aS'bay shore'
p29
aS'kings park'
p30
aS'deer park'
p31
aS'babylon'
p32
aS'northport'
p33
aS'wyandanch'
p34
aS'greenlawn'
p35
aS'lindenhurst'
p36
aS'copiague'
p37
aS'pinelawn'
p38
aS'huntington'
p39
aS'amityville'
p40
aS'farmingdale'
p41
aS'cold spring harbor'
p42
aS'massapequa park'
p43
aS'massapequa'
p44
aS'bethpage'
p45
aS'seaford'
p46
aS'syosset'
p47
aS'wantagh'
p48
aS'hicksville'
p49
aS'bellmore'
p50
aS'oyster bay'
p51
aS'merrick'
p52
aS'freeport'
p53
aS'westbury'
p54
aS'locust valley'
p55
aS'carle place'
p56
aS'baldwin'
p57
aS'glen cove'
p58
aS'glen street'
p59
aS'hempstead'
p60
aS'sea cliff'
p61
aS'glen head'
p62
aS'greenvale'
p63
aS'country life press'
p64
aS'east williston'
p65
aS'garden city'
p66
aS'mineola'
p67
aS'west hempstead'
p68
aS'albertson'
p69
aS'roslyn'
p70
aS'hempstead gardens'
p71
aS'rockville centre'
p72
aS'lakeview'
p73
aS'oceanside'
p74
aS'island park'
p75
aS'east rockaway'
p76
aS'merillon avenue'
p77
aS'nassau boulevard'
p78
aS'centre avenue'
p79
aS'long beach'
p80
aS'malverne'
p81
aS'lynbrook'
p82
aS'new hyde park'
p83
aS'stewart manor'
p84
aS'westwood'
p85
aS'port washington'
p86
aS'plandome'
p87
aS'manhasset'
p88
aS'gibson'
p89
aS'valley stream'
p90
aS'hewlett'
p91
aS'floral park'
p92
aS'woodmere'
p93
aS'bellerose'
p94
aS'great neck'
p95
aS'cedarhurst'
p96
aS'belmont'
p97
aS'rosedale'
p98
aS'lawrence'
p99
aS'queens village'
p100
aS'little neck'
p101
aS'inwood'
p102
aS'douglaston'
p103
aS'far rockaway'
p104
aS'laurelton'
p105
aS'locust manor'
p106
aS'st. albans'
p107
aS'hollis'
p108
aS'bayside'
p109
aS'auburndale'
p110
aS'broadway'
p111
aS'jamaica'
p112
aS'murray hill'
p113
aS'kew gardens'
p114
aS'flushing main street'
p115
aS'mets-willets point'
p116
aS'forest hills'
p117
aS'east new york'
p118
aS'woodside'
p119
aS'hunterspoint avenue'
p120
aS'nostrand avenue'
p121
aS'long island city'
p122
aS'atlantic terminal'
p123
aS'penn station'
p124
a.